target datalayout = "e-m:e-p270:32:32-p271:32:32-p272:64:64-i64:64-i128:128-f80:128-n8:16:32:64-S128"
target triple = "x86_64-pc-linux-gnu"

@.str.90 = private unnamed_addr constant [12 x i8] c"arp.hw.type\00", align 1
@arp_handle = internal global ptr null, align 8
@.str.196 = private unnamed_addr constant [8 x i8] c"atm_arp\00", align 1
@.str.197 = private unnamed_addr constant [9 x i8] c"ax25_arp\00", align 1
@arp_cap_handle = internal global ptr null, align 8
@.str.214 = private unnamed_addr constant [10 x i8] c"ethertype\00", align 1
@.str.215 = private unnamed_addr constant [19 x i8] c"arcnet.protocol_id\00", align 1
@.str.216 = private unnamed_addr constant [9 x i8] c"ax25.pid\00", align 1
@.str.217 = private unnamed_addr constant [10 x i8] c"gre.proto\00", align 1

; Function Attrs: null_pointer_is_valid sspstrong uwtable
define hidden void @proto_reg_handoff_arp() #0 {
  %1 = alloca ptr, align 8
  %2 = alloca ptr, align 8
  call void @llvm.lifetime.start.p0(i64 8, ptr %1) #11
  %3 = call ptr @find_dissector(ptr noundef @.str.196)
  store ptr %3, ptr %1, align 8
  call void @llvm.lifetime.start.p0(i64 8, ptr %2) #11
  %4 = call ptr @find_dissector(ptr noundef @.str.197)
  store ptr %4, ptr %2, align 8
  %5 = load ptr, ptr @arp_handle, align 8
  call void @dissector_add_uint(ptr noundef @.str.214, i32 noundef 2054, ptr noundef %5)
  %6 = load ptr, ptr @arp_handle, align 8
  call void @dissector_add_uint(ptr noundef @.str.214, i32 noundef 32821, ptr noundef %6)
  %7 = load ptr, ptr @arp_handle, align 8
  call void @dissector_add_uint(ptr noundef @.str.215, i32 noundef 241, ptr noundef %7)
  %8 = load ptr, ptr @arp_handle, align 8
  call void @dissector_add_uint(ptr noundef @.str.215, i32 noundef 213, ptr noundef %8)
  %9 = load ptr, ptr @arp_handle, align 8
  call void @dissector_add_uint(ptr noundef @.str.215, i32 noundef 214, ptr noundef %9)
  %10 = load ptr, ptr @arp_handle, align 8
  call void @dissector_add_uint(ptr noundef @.str.216, i32 noundef 205, ptr noundef %10)
  %11 = load ptr, ptr @arp_handle, align 8
  call void @dissector_add_uint(ptr noundef @.str.217, i32 noundef 2054, ptr noundef %11)
  %12 = load ptr, ptr @arp_cap_handle, align 8
  call void @capture_dissector_add_uint(ptr noundef @.str.214, i32 noundef 2054, ptr noundef %12)
  %13 = load ptr, ptr @arp_cap_handle, align 8
  call void @capture_dissector_add_uint(ptr noundef @.str.216, i32 noundef 205, ptr noundef %13)
  %14 = load ptr, ptr %1, align 8
  call void @dissector_add_uint(ptr noundef @.str.90, i32 noundef 19, ptr noundef %14)
  %15 = load ptr, ptr %2, align 8
  call void @dissector_add_uint(ptr noundef @.str.90, i32 noundef 3, ptr noundef %15)
  call void @llvm.lifetime.end.p0(i64 8, ptr %2) #11
  call void @llvm.lifetime.end.p0(i64 8, ptr %1) #11
  ret void
}