; Function Attrs: null_pointer_is_valid sspstrong uwtable
define hidden void @proto_reg_handoff_arp() local_unnamed_addr #0 {
  %1 = tail call ptr @find_dissector(ptr noundef nonnull @.str.196)
  %2 = tail call ptr @find_dissector(ptr noundef nonnull @.str.197)
  %3 = load ptr, ptr @arp_handle, align 8
  tail call void @dissector_add_uint(ptr noundef nonnull @.str.214, i32 noundef 2054, ptr noundef %3)
  %4 = load ptr, ptr @arp_handle, align 8
  tail call void @dissector_add_uint(ptr noundef nonnull @.str.214, i32 noundef 32821, ptr noundef %4)
  %5 = load ptr, ptr @arp_handle, align 8
  tail call void @dissector_add_uint(ptr noundef nonnull @.str.215, i32 noundef 241, ptr noundef %5)
  %6 = load ptr, ptr @arp_handle, align 8
  tail call void @dissector_add_uint(ptr noundef nonnull @.str.215, i32 noundef 213, ptr noundef %6)
  %7 = load ptr, ptr @arp_handle, align 8
  tail call void @dissector_add_uint(ptr noundef nonnull @.str.215, i32 noundef 214, ptr noundef %7)
  %8 = load ptr, ptr @arp_handle, align 8
  tail call void @dissector_add_uint(ptr noundef nonnull @.str.216, i32 noundef 205, ptr noundef %8)
  %9 = load ptr, ptr @arp_handle, align 8
  tail call void @dissector_add_uint(ptr noundef nonnull @.str.217, i32 noundef 2054, ptr noundef %9)
  %10 = load ptr, ptr @arp_cap_handle, align 8
  tail call void @capture_dissector_add_uint(ptr noundef nonnull @.str.214, i32 noundef 2054, ptr noundef %10)
  %11 = load ptr, ptr @arp_cap_handle, align 8
  tail call void @capture_dissector_add_uint(ptr noundef nonnull @.str.216, i32 noundef 205, ptr noundef %11)
  tail call void @dissector_add_uint(ptr noundef nonnull @.str.90, i32 noundef 19, ptr noundef %1)
  tail call void @dissector_add_uint(ptr noundef nonnull @.str.90, i32 noundef 3, ptr noundef %2)
  ret void
}